target datalayout = "e-m:e-p270:32:32-p271:32:32-p272:64:64-i64:64-i128:128-f80:128-n8:16:32:64-S128"
target triple = "x86_64-pc-linux-gnu"

%struct.Curl_cfilter = type { ptr, ptr, ptr, ptr, i32, i8 }
%struct.connectdata = type { %struct.Curl_llist_node, ptr, ptr, i64, ptr, i64, ptr, ptr, %struct.hostname, ptr, ptr, %struct.hostname, %struct.proxy_info, %struct.proxy_info, %struct.ip_quadruple, %struct.ip_quadruple, ptr, ptr, ptr, ptr, ptr, %struct.curltime, %struct.curltime, %struct.curltime, [2 x i32], [2 x ptr], [2 x ptr], [2 x ptr], %struct.anon, %struct.easy_pollset, %struct.ssl_primary_config, %struct.ssl_primary_config, %struct.ConnectBits, ptr, ptr, %struct.curltime, i32, i32, %struct.Curl_llist, i32, i32, %struct.ntlmdata, %struct.ntlmdata, %union.anon, ptr, ptr, i16, i32, i32, i32, i32, i16, i16, i8, i8, i8, i8, i8, i8, i8 }
%struct.Curl_llist_node = type { ptr, ptr, ptr, ptr }
%struct.hostname = type { ptr, ptr, ptr, ptr }
%struct.proxy_info = type { %struct.hostname, i32, i8, ptr, ptr }
%struct.ip_quadruple = type { [46 x i8], [46 x i8], i32, i32 }
%struct.anon = type { [2 x %struct.curltime], i32 }
%struct.easy_pollset = type { [5 x i32], i32, [5 x i8] }
%struct.ssl_primary_config = type { ptr, ptr, ptr, ptr, ptr, ptr, ptr, ptr, ptr, ptr, ptr, ptr, ptr, ptr, i8, i32, i8, i8 }
%struct.ConnectBits = type { i64 }
%struct.curltime = type { i64, i32 }
%struct.Curl_llist = type { ptr, ptr, ptr, i64 }
%struct.ntlmdata = type { i32, [8 x i8], i32, ptr }
%union.anon = type { %struct.ftp_conn }
%struct.ftp_conn = type { %struct.pingpong, ptr, ptr, ptr, ptr, ptr, ptr, ptr, i8, i64, ptr, i64, i32, i32, i32, i32, i32, i16, i8, i8, i8, i8, i8 }
%struct.pingpong = type { i64, i8, ptr, i64, i64, %struct.curltime, i64, %struct.dynbuf, %struct.dynbuf, i64, i64, ptr, ptr }
%struct.dynbuf = type { ptr, i64, i64, i64 }

; Function Attrs: nounwind uwtable
define hidden i32 @Curl_http_proxy_get_destination(ptr noundef %0, ptr noundef %1, ptr noundef %2, ptr noundef %3) #0 {
  %5 = alloca ptr, align 8
  %6 = alloca ptr, align 8
  %7 = alloca ptr, align 8
  %8 = alloca ptr, align 8
  store ptr %0, ptr %5, align 8, !tbaa !3
  store ptr %1, ptr %6, align 8, !tbaa !8
  store ptr %2, ptr %7, align 8, !tbaa !10
  store ptr %3, ptr %8, align 8, !tbaa !12
  br label %9

9:                                                ; preds = %4
  br label %10

10:                                               ; preds = %9
  br label %11

11:                                               ; preds = %10
  br label %12

12:                                               ; preds = %11
  %13 = load ptr, ptr %5, align 8, !tbaa !3
  %14 = getelementptr inbounds nuw %struct.Curl_cfilter, ptr %13, i32 0, i32 3
  %15 = load ptr, ptr %14, align 8, !tbaa !14
  %16 = getelementptr inbounds nuw %struct.connectdata, ptr %15, i32 0, i32 32
  %17 = load i64, ptr %16, align 8
  %18 = lshr i64 %17, 8
  %19 = and i64 %18, 1
  %20 = trunc i64 %19 to i32
  %21 = icmp ne i32 %20, 0
  br i1 %21, label %22, label %30

22:                                               ; preds = %12
  %23 = load ptr, ptr %5, align 8, !tbaa !3
  %24 = getelementptr inbounds nuw %struct.Curl_cfilter, ptr %23, i32 0, i32 3
  %25 = load ptr, ptr %24, align 8, !tbaa !14
  %26 = getelementptr inbounds nuw %struct.connectdata, ptr %25, i32 0, i32 11
  %27 = getelementptr inbounds nuw %struct.hostname, ptr %26, i32 0, i32 2
  %28 = load ptr, ptr %27, align 8, !tbaa !19
  %29 = load ptr, ptr %6, align 8, !tbaa !8
  store ptr %28, ptr %29, align 8, !tbaa !41
  br label %51

30:                                               ; preds = %12
  %31 = load ptr, ptr %5, align 8, !tbaa !3
  %32 = getelementptr inbounds nuw %struct.Curl_cfilter, ptr %31, i32 0, i32 4
  %33 = load i32, ptr %32, align 8, !tbaa !42
  %34 = icmp eq i32 %33, 1
  br i1 %34, label %35, label %42

35:                                               ; preds = %30
  %36 = load ptr, ptr %5, align 8, !tbaa !3
  %37 = getelementptr inbounds nuw %struct.Curl_cfilter, ptr %36, i32 0, i32 3
  %38 = load ptr, ptr %37, align 8, !tbaa !14
  %39 = getelementptr inbounds nuw %struct.connectdata, ptr %38, i32 0, i32 10
  %40 = load ptr, ptr %39, align 8, !tbaa !43
  %41 = load ptr, ptr %6, align 8, !tbaa !8
  store ptr %40, ptr %41, align 8, !tbaa !41
  br label %50

42:                                               ; preds = %30
  %43 = load ptr, ptr %5, align 8, !tbaa !3
  %44 = getelementptr inbounds nuw %struct.Curl_cfilter, ptr %43, i32 0, i32 3
  %45 = load ptr, ptr %44, align 8, !tbaa !14
  %46 = getelementptr inbounds nuw %struct.connectdata, ptr %45, i32 0, i32 8
  %47 = getelementptr inbounds nuw %struct.hostname, ptr %46, i32 0, i32 2
  %48 = load ptr, ptr %47, align 8, !tbaa !44
  %49 = load ptr, ptr %6, align 8, !tbaa !8
  store ptr %48, ptr %49, align 8, !tbaa !41
  br label %50

50:                                               ; preds = %42, %35
  br label %51

51:                                               ; preds = %50, %22
  %52 = load ptr, ptr %5, align 8, !tbaa !3
  %53 = getelementptr inbounds nuw %struct.Curl_cfilter, ptr %52, i32 0, i32 4
  %54 = load i32, ptr %53, align 8, !tbaa !42
  %55 = icmp eq i32 %54, 1
  br i1 %55, label %56, label %64

56:                                               ; preds = %51
  %57 = load ptr, ptr %5, align 8, !tbaa !3
  %58 = getelementptr inbounds nuw %struct.Curl_cfilter, ptr %57, i32 0, i32 3
  %59 = load ptr, ptr %58, align 8, !tbaa !14
  %60 = getelementptr inbounds nuw %struct.connectdata, ptr %59, i32 0, i32 52
  %61 = load i16, ptr %60, align 2, !tbaa !45
  %62 = zext i16 %61 to i32
  %63 = load ptr, ptr %7, align 8, !tbaa !10
  store i32 %62, ptr %63, align 4, !tbaa !46
  br label %89

64:                                               ; preds = %51
  %65 = load ptr, ptr %5, align 8, !tbaa !3
  %66 = getelementptr inbounds nuw %struct.Curl_cfilter, ptr %65, i32 0, i32 3
  %67 = load ptr, ptr %66, align 8, !tbaa !14
  %68 = getelementptr inbounds nuw %struct.connectdata, ptr %67, i32 0, i32 32
  %69 = load i64, ptr %68, align 8
  %70 = lshr i64 %69, 9
  %71 = and i64 %70, 1
  %72 = trunc i64 %71 to i32
  %73 = icmp ne i32 %72, 0
  br i1 %73, label %74, label %81

74:                                               ; preds = %64
  %75 = load ptr, ptr %5, align 8, !tbaa !3
  %76 = getelementptr inbounds nuw %struct.Curl_cfilter, ptr %75, i32 0, i32 3
  %77 = load ptr, ptr %76, align 8, !tbaa !14
  %78 = getelementptr inbounds nuw %struct.connectdata, ptr %77, i32 0, i32 49
  %79 = load i32, ptr %78, align 4, !tbaa !47
  %80 = load ptr, ptr %7, align 8, !tbaa !10
  store i32 %79, ptr %80, align 4, !tbaa !46
  br label %88

81:                                               ; preds = %64
  %82 = load ptr, ptr %5, align 8, !tbaa !3
  %83 = getelementptr inbounds nuw %struct.Curl_cfilter, ptr %82, i32 0, i32 3
  %84 = load ptr, ptr %83, align 8, !tbaa !14
  %85 = getelementptr inbounds nuw %struct.connectdata, ptr %84, i32 0, i32 48
  %86 = load i32, ptr %85, align 8, !tbaa !48
  %87 = load ptr, ptr %7, align 8, !tbaa !10
  store i32 %86, ptr %87, align 4, !tbaa !46
  br label %88

88:                                               ; preds = %81, %74
  br label %89

89:                                               ; preds = %88, %56
  %90 = load ptr, ptr %6, align 8, !tbaa !8
  %91 = load ptr, ptr %90, align 8, !tbaa !41
  %92 = load ptr, ptr %5, align 8, !tbaa !3
  %93 = getelementptr inbounds nuw %struct.Curl_cfilter, ptr %92, i32 0, i32 3
  %94 = load ptr, ptr %93, align 8, !tbaa !14
  %95 = getelementptr inbounds nuw %struct.connectdata, ptr %94, i32 0, i32 8
  %96 = getelementptr inbounds nuw %struct.hostname, ptr %95, i32 0, i32 2
  %97 = load ptr, ptr %96, align 8, !tbaa !44
  %98 = icmp ne ptr %91, %97
  br i1 %98, label %99, label %106

99:                                               ; preds = %89
  %100 = load ptr, ptr %6, align 8, !tbaa !8
  %101 = load ptr, ptr %100, align 8, !tbaa !41
  %102 = call ptr @strchr(ptr noundef %101, i32 noundef 58) #4
  %103 = icmp ne ptr %102, null
  %104 = load ptr, ptr %8, align 8, !tbaa !12
  %105 = zext i1 %103 to i8
  store i8 %105, ptr %104, align 1, !tbaa !49
  br label %118

106:                                              ; preds = %89
  %107 = load ptr, ptr %5, align 8, !tbaa !3
  %108 = getelementptr inbounds nuw %struct.Curl_cfilter, ptr %107, i32 0, i32 3
  %109 = load ptr, ptr %108, align 8, !tbaa !14
  %110 = getelementptr inbounds nuw %struct.connectdata, ptr %109, i32 0, i32 32
  %111 = load i64, ptr %110, align 8
  %112 = lshr i64 %111, 10
  %113 = and i64 %112, 1
  %114 = trunc i64 %113 to i32
  %115 = icmp ne i32 %114, 0
  %116 = load ptr, ptr %8, align 8, !tbaa !12
  %117 = zext i1 %115 to i8
  store i8 %117, ptr %116, align 1, !tbaa !49
  br label %118

118:                                              ; preds = %106, %99
  ret i32 0
}