; Function Attrs: mustprogress nofree nounwind willreturn memory(read, argmem: readwrite, inaccessiblemem: none) uwtable
define hidden noundef i32 @Curl_http_proxy_get_destination(ptr noundef readonly captures(none) %0, ptr noundef writeonly captures(none) initializes((0, 8)) %1, ptr noundef writeonly captures(none) initializes((0, 4)) %2, ptr noundef writeonly captures(none) initializes((0, 1)) %3) local_unnamed_addr #0 {
  %5 = getelementptr inbounds nuw i8, ptr %0, i64 24
  %6 = load ptr, ptr %5, align 8, !tbaa !3
  %7 = getelementptr inbounds nuw i8, ptr %6, i64 952
  %8 = load i64, ptr %7, align 8
  %9 = and i64 %8, 256
  %.not = icmp eq i64 %9, 0
  br i1 %.not, label %10, label %18

10:                                               ; preds = %4
  %11 = getelementptr inbounds nuw i8, ptr %0, i64 32
  %12 = load i32, ptr %11, align 8, !tbaa !12
  %13 = icmp eq i32 %12, 1
  br i1 %13, label %.thread, label %.thread24

.thread:                                          ; preds = %10
  %14 = getelementptr inbounds nuw i8, ptr %6, i64 128
  %15 = load ptr, ptr %14, align 8, !tbaa !13
  store ptr %15, ptr %1, align 8, !tbaa !35
  br label %22

.thread24:                                        ; preds = %10
  %16 = getelementptr inbounds nuw i8, ptr %6, i64 104
  %17 = load ptr, ptr %16, align 8, !tbaa !36
  store ptr %17, ptr %1, align 8, !tbaa !35
  br label %27

18:                                               ; preds = %4
  %19 = getelementptr inbounds nuw i8, ptr %6, i64 152
  %20 = load ptr, ptr %19, align 8, !tbaa !37
  store ptr %20, ptr %1, align 8, !tbaa !35
  %.phi.trans.insert = getelementptr inbounds nuw i8, ptr %0, i64 32
  %.pre = load i32, ptr %.phi.trans.insert, align 8, !tbaa !12
  %21 = icmp eq i32 %.pre, 1
  br i1 %21, label %22, label %27

22:                                               ; preds = %.thread, %18
  %23 = phi ptr [ %15, %.thread ], [ %20, %18 ]
  %24 = getelementptr inbounds nuw i8, ptr %6, i64 1406
  %25 = load i16, ptr %24, align 2, !tbaa !38
  %26 = zext i16 %25 to i32
  br label %37

27:                                               ; preds = %.thread24, %18
  %28 = phi ptr [ %17, %.thread24 ], [ %20, %18 ]
  %29 = load i64, ptr %7, align 8
  %30 = and i64 %29, 512
  %.not22 = icmp eq i64 %30, 0
  br i1 %.not22, label %34, label %31

31:                                               ; preds = %27
  %32 = getelementptr inbounds nuw i8, ptr %6, i64 1396
  %33 = load i32, ptr %32, align 4, !tbaa !39
  br label %37

34:                                               ; preds = %27
  %35 = getelementptr inbounds nuw i8, ptr %6, i64 1392
  %36 = load i32, ptr %35, align 8, !tbaa !40
  br label %37

37:                                               ; preds = %31, %34, %22
  %.sink = phi i32 [ %33, %31 ], [ %36, %34 ], [ %26, %22 ]
  %38 = phi ptr [ %28, %31 ], [ %28, %34 ], [ %23, %22 ]
  store i32 %.sink, ptr %2, align 4, !tbaa !41
  %39 = getelementptr inbounds nuw i8, ptr %6, i64 104
  %40 = load ptr, ptr %39, align 8, !tbaa !36
  %.not23 = icmp eq ptr %38, %40
  br i1 %.not23, label %45, label %41

41:                                               ; preds = %37
  %42 = tail call ptr @strchr(ptr noundef nonnull dereferenceable(1) %38, i32 noundef 58) #5
  %43 = icmp ne ptr %42, null
  %44 = zext i1 %43 to i8
  br label %50

45:                                               ; preds = %37
  %46 = load i64, ptr %7, align 8
  %47 = lshr i64 %46, 10
  %48 = trunc i64 %47 to i8
  %49 = and i8 %48, 1
  br label %50

50:                                               ; preds = %45, %41
  %storemerge = phi i8 [ %49, %45 ], [ %44, %41 ]
  store i8 %storemerge, ptr %3, align 1, !tbaa !42
  ret i32 0
}